target datalayout = "e-m:e-p270:32:32-p271:32:32-p272:64:64-i64:64-i128:128-f80:128-n8:16:32:64-S128"
target triple = "x86_64-pc-linux-gnu"

%struct._zend_compiler_globals = type { %struct._zend_stack, ptr, ptr, i32, ptr, ptr, ptr, ptr, i8, i8, i8, i8, i8, %struct._zend_llist, ptr, i8, i8, i8, i8, ptr, i32, i32, %struct._zend_oparray_context, %struct._zend_file_context, ptr, %struct._zend_array, ptr, i64, i8, i8, i8, ptr, ptr, %struct._zend_stack, ptr, i32, ptr, ptr, i64, i64, ptr, ptr, ptr, ptr, i32, %struct._zend_stack }
%struct._zend_llist = type { ptr, ptr, i64, i64, ptr, i8, ptr }
%struct._zend_oparray_context = type { i32, i32, i32, i32, i32, i32, i32, ptr, ptr, i8 }
%struct._zend_file_context = type { %struct._zend_declarables, ptr, i8, i8, ptr, ptr, ptr, %struct._zend_array }
%struct._zend_declarables = type { i64 }
%struct._zend_array = type { %struct._zend_refcounted_h, %union.anon.0, i32, %union.anon.1, i32, i32, i32, i32, i64, ptr }
%struct._zend_refcounted_h = type { i32, %union.anon }
%union.anon = type { i32 }
%union.anon.0 = type { i32 }
%union.anon.1 = type { ptr }
%struct._zend_stack = type { i32, i32, i32, ptr }

@compiler_globals = global %struct._zend_compiler_globals zeroinitializer, align 8

; Function Attrs: nounwind uwtable
define ptr @zend_set_compiled_filename(ptr noundef %0) #0 {
  %2 = alloca ptr, align 8
  %3 = alloca i32, align 4
  %4 = alloca ptr, align 8
  %5 = alloca ptr, align 8
  store ptr %0, ptr %5, align 8
  %6 = load ptr, ptr %5, align 8
  store ptr %6, ptr %4, align 8
  %7 = load ptr, ptr %4, align 8
  %8 = getelementptr inbounds %struct._zend_refcounted_h, ptr %7, i32 0, i32 1
  %9 = load i32, ptr %8, align 4
  store i32 %9, ptr %3, align 4
  %10 = load i32, ptr %3, align 4
  %11 = and i32 %10, 1008
  %12 = and i32 %11, 64
  %13 = icmp ne i32 %12, 0
  br i1 %13, label %19, label %14

14:                                               ; preds = %1
  %15 = load ptr, ptr %4, align 8
  store ptr %15, ptr %2, align 8
  %16 = load ptr, ptr %2, align 8
  %17 = load i32, ptr %16, align 4
  %18 = add i32 %17, 1
  store i32 %18, ptr %16, align 4
  br label %19

19:                                               ; preds = %14, %1
  %20 = load ptr, ptr %4, align 8
  store ptr %20, ptr getelementptr inbounds (%struct._zend_compiler_globals, ptr @compiler_globals, i32 0, i32 2), align 8
  %21 = load ptr, ptr %5, align 8
  ret ptr %21
}