; Function Attrs: mustprogress nofree norecurse nosync nounwind willreturn memory(write, argmem: readwrite, inaccessiblemem: none) uwtable
define noundef ptr @zend_set_compiled_filename(ptr noundef returned %0) local_unnamed_addr #6 {
  %2 = getelementptr inbounds i8, ptr %0, i64 4
  %3 = load i32, ptr %2, align 4
  %4 = and i32 %3, 64
  %.not = icmp eq i32 %4, 0
  br i1 %.not, label %5, label %8

5:                                                ; preds = %1
  %6 = load i32, ptr %0, align 4
  %7 = add i32 %6, 1
  store i32 %7, ptr %0, align 4
  br label %8

8:                                                ; preds = %5, %1
  store ptr %0, ptr getelementptr inbounds (%struct._zend_compiler_globals, ptr @compiler_globals, i64 0, i32 2), align 8
  ret ptr %0
}